target datalayout = "e-m:e-p270:32:32-p271:32:32-p272:64:64-i64:64-i128:128-f80:128-n8:16:32:64-S128"
target triple = "x86_64-pc-linux-gnu"

%struct.redisServer = type { i32, i64, ptr, ptr, ptr, i32, i32, i32, i32, i32, ptr, ptr, ptr, ptr, ptr, i32, i32, i32, i32, i64, i32, i32, i32, i32, ptr, i32, i32, [41 x i8], i32, i64, i32, i32, i32, ptr, ptr, i32, i32, i64, ptr, ptr, ptr, ptr, [2 x i32], i32, i32, i32, i32, i32, i32, [16 x ptr], i32, ptr, ptr, i32, [8 x %struct.connListener], i32, %struct.connListener, ptr, ptr, ptr, ptr, ptr, ptr, ptr, ptr, ptr, ptr, i32, ptr, i32, ptr, [3 x %struct.pause_event], [256 x i8], ptr, i64, i32, i32, [128 x i32], i32, i32, i64, i32, i32, i32, i32, i32, i64, i64, i64, i64, i64, i64, i64, i64, i64, i64, double, i64, i64, i64, i64, i64, i64, i64, i64, i64, i64, i64, i64, i64, i64, i64, i64, i64, i64, i64, i64, i64, double, i64, i64, i64, i64, i64, ptr, i64, i64, i64, %struct.malloc_stats, i64, i64, i64, i64, i64, i64, i64, i64, i64, i64, i64, i64, double, [4 x i64], i64, i64, i64, i64, [128 x i64], [128 x i64], i64, i64, [7 x %struct.anon], i64, i64, i64, i64, i64, i64, [4 x %struct.durationStats], i32, i32, i32, i32, i32, i32, i32, i32, i32, i32, i32, i32, i64, i32, i32, i32, i32, i64, i64, i32, i32, i32, i32, i32, ptr, [3 x %struct.clientBufferLimitsConfig], i32, i32, i32, ptr, i32, i32, i32, i32, i32, i32, ptr, ptr, i32, i32, i64, i64, i64, i64, i64, i32, i32, ptr, i32, i32, i64, i64, i64, i64, i64, i32, i32, i64, i32, i32, i32, i32, i32, i32, i32, i32, ptr, i32, i64, i64, i64, i64, i32, ptr, i32, ptr, i32, i32, i32, i64, i64, i64, i64, i32, i32, i32, i32, i32, i32, ptr, i32, i32, ptr, i32, i32, i32, [2 x i32], i32, %struct.redisOpArray, i32, ptr, i32, ptr, i32, i32, i32, i32, i32, i32, i32, [41 x i8], [41 x i8], i64, i64, i64, i64, i32, i32, ptr, i64, i64, %struct.replDataBuf, i64, i64, i32, i32, i32, i32, i32, i32, i32, i32, i32, i64, ptr, i64, ptr, ptr, ptr, i32, i32, ptr, ptr, i32, i32, i32, i64, i64, i64, i64, ptr, ptr, i32, ptr, i64, i32, i32, i32, i64, i32, i32, i32, i32, ptr, i32, i32, [41 x i8], i64, i32, ptr, i32, i32, i64, i64, i32, i32, i32, i32, i32, i64, [3 x i32], i32, i32, i32, [10 x i32], ptr, ptr, i32, i64, ptr, ptr, i32, i32, i32, i32, i64, i64, i64, i64, i64, i64, i64, i64, i64, i64, i32, i32, i64, i64, i32, i64, i64, i64, i64, i64, ptr, ptr, i32, ptr, i32, i32, i32, i32, i64, i64, ptr, ptr, i32, i32, i32, i32, i32, ptr, ptr, ptr, i32, i32, i32, i32, i32, i32, i32, i64, i32, i32, i64, i32, i32, i32, i32, i32, i32, i32, i64, ptr, ptr, i64, ptr, i32, %struct.aclInfo, i32, i64, i32, i32, i32, %struct.redisTLSContextConfig, ptr, ptr, ptr, ptr, ptr, i64, i32, ptr, i32, i32, i32, i64, i32, ptr }
%struct.connListener = type { [16 x i32], i32, ptr, i32, i32, ptr, ptr }
%struct.pause_event = type { i32, i64 }
%struct.malloc_stats = type { i64, i64, i64, i64, i64, i64, i64, i64, i64, i64, i64 }
%struct.anon = type { i64, i64, [16 x i64], i32 }
%struct.durationStats = type { i64, i64, i64 }
%struct.clientBufferLimitsConfig = type { i64, i64, i64 }
%struct.redisOpArray = type { ptr, i32, i32 }
%struct.replDataBuf = type { ptr, i64, i64, i64, i64 }
%struct.aclInfo = type { i64, i64, i64, i64 }
%struct.redisTLSContextConfig = type { ptr, ptr, ptr, ptr, ptr, ptr, ptr, ptr, ptr, ptr, ptr, ptr, i32, i32, i32, i32 }
%struct.slowlogEntry = type { ptr, i32, i64, i64, i64, ptr, ptr }
%struct.redisObject = type { i32, i32, ptr }
%struct.client = type { i64, i64, ptr, i8, i8, i8, i8, i32, ptr, ptr, ptr, ptr, ptr, i64, i64, i32, ptr, i32, i32, ptr, i64, ptr, ptr, ptr, ptr, ptr, i32, i32, i64, ptr, i64, ptr, i64, i64, i64, i32, ptr, i64, i64, i32, i32, i32, i32, i64, i64, ptr, i64, i64, i64, i64, i64, i64, i64, i64, [41 x i8], i32, ptr, i32, i32, i64, %struct.multiState, %struct.blockingState, i64, ptr, ptr, ptr, ptr, ptr, ptr, ptr, ptr, ptr, ptr, ptr, ptr, ptr, ptr, i64, ptr, i64, i32, ptr, ptr, ptr, i64, %struct.listNode, i64, i64, i32, i64, ptr }
%struct.multiState = type { ptr, i32, i32, i32, i64, i32 }
%struct.blockingState = type { i32, i64, i32, ptr, i32, i32, i64, ptr, ptr, i64 }
%struct.listNode = type { ptr, ptr, ptr }
%struct.sdshdr8 = type { i8, i8, i8, [0 x i8] }
%struct.sdshdr16 = type <{ i16, i16, i8, [0 x i8] }>
%struct.sdshdr32 = type <{ i32, i32, i8, [0 x i8] }>
%struct.sdshdr64 = type <{ i64, i64, i8, [0 x i8] }>

@.str = private unnamed_addr constant [24 x i8] c"... (%d more arguments)\00", align 1
@.str.1 = private unnamed_addr constant [21 x i8] c"... (%lu more bytes)\00", align 1
@server = external global %struct.redisServer, align 8

; Function Attrs: inlinehint nounwind uwtable
define internal i64 @sdslen(ptr noundef %0) #4 {
  %2 = alloca i64, align 8
  %3 = alloca ptr, align 8
  %4 = alloca i8, align 1
  %5 = alloca i32, align 4
  store ptr %0, ptr %3, align 8, !tbaa !27
  call void @llvm.lifetime.start.p0(i64 1, ptr %4) #8
  %6 = load ptr, ptr %3, align 8, !tbaa !27
  %7 = getelementptr inbounds i8, ptr %6, i64 -1
  %8 = load i8, ptr %7, align 1, !tbaa !70
  store i8 %8, ptr %4, align 1, !tbaa !70
  %9 = load i8, ptr %4, align 1, !tbaa !70
  %10 = zext i8 %9 to i32
  %11 = and i32 %10, 7
  switch i32 %11, label %40 [
    i32 0, label %12
    i32 1, label %17
    i32 2, label %23
    i32 3, label %29
    i32 4, label %35
  ]

12:                                               ; preds = %1
  %13 = load i8, ptr %4, align 1, !tbaa !70
  %14 = zext i8 %13 to i32
  %15 = ashr i32 %14, 3
  %16 = sext i32 %15 to i64
  store i64 %16, ptr %2, align 8
  store i32 1, ptr %5, align 4
  br label %41

17:                                               ; preds = %1
  %18 = load ptr, ptr %3, align 8, !tbaa !27
  %19 = getelementptr inbounds i8, ptr %18, i64 -3
  %20 = getelementptr inbounds nuw %struct.sdshdr8, ptr %19, i32 0, i32 0
  %21 = load i8, ptr %20, align 1, !tbaa !70
  %22 = zext i8 %21 to i64
  store i64 %22, ptr %2, align 8
  store i32 1, ptr %5, align 4
  br label %41

23:                                               ; preds = %1
  %24 = load ptr, ptr %3, align 8, !tbaa !27
  %25 = getelementptr inbounds i8, ptr %24, i64 -5
  %26 = getelementptr inbounds nuw %struct.sdshdr16, ptr %25, i32 0, i32 0
  %27 = load i16, ptr %26, align 1, !tbaa !71
  %28 = zext i16 %27 to i64
  store i64 %28, ptr %2, align 8
  store i32 1, ptr %5, align 4
  br label %41

29:                                               ; preds = %1
  %30 = load ptr, ptr %3, align 8, !tbaa !27
  %31 = getelementptr inbounds i8, ptr %30, i64 -9
  %32 = getelementptr inbounds nuw %struct.sdshdr32, ptr %31, i32 0, i32 0
  %33 = load i32, ptr %32, align 1, !tbaa !12
  %34 = zext i32 %33 to i64
  store i64 %34, ptr %2, align 8
  store i32 1, ptr %5, align 4
  br label %41

35:                                               ; preds = %1
  %36 = load ptr, ptr %3, align 8, !tbaa !27
  %37 = getelementptr inbounds i8, ptr %36, i64 -17
  %38 = getelementptr inbounds nuw %struct.sdshdr64, ptr %37, i32 0, i32 0
  %39 = load i64, ptr %38, align 1, !tbaa !73
  store i64 %39, ptr %2, align 8
  store i32 1, ptr %5, align 4
  br label %41

40:                                               ; preds = %1
  store i64 0, ptr %2, align 8
  store i32 1, ptr %5, align 4
  br label %41

41:                                               ; preds = %40, %35, %29, %23, %17, %12
  call void @llvm.lifetime.end.p0(i64 1, ptr %4) #8
  %42 = load i64, ptr %2, align 8
  ret i64 %42
}

; Function Attrs: nounwind uwtable
define dso_local ptr @slowlogCreateEntry(ptr noundef %0, ptr noundef %1, i32 noundef %2, i64 noundef %3) #0 {
  %5 = alloca ptr, align 8
  %6 = alloca ptr, align 8
  %7 = alloca i32, align 4
  %8 = alloca i64, align 8
  %9 = alloca ptr, align 8
  %10 = alloca i32, align 4
  %11 = alloca i32, align 4
  %12 = alloca ptr, align 8
  store ptr %0, ptr %5, align 8, !tbaa !5
  store ptr %1, ptr %6, align 8, !tbaa !10
  store i32 %2, ptr %7, align 4, !tbaa !12
  store i64 %3, ptr %8, align 8, !tbaa !14
  call void @llvm.lifetime.start.p0(i64 8, ptr %9) #8
  %13 = call noalias ptr @zmalloc(i64 noundef 56) #9
  store ptr %13, ptr %9, align 8, !tbaa !16
  call void @llvm.lifetime.start.p0(i64 4, ptr %10) #8
  call void @llvm.lifetime.start.p0(i64 4, ptr %11) #8
  %14 = load i32, ptr %7, align 4, !tbaa !12
  store i32 %14, ptr %11, align 4, !tbaa !12
  %15 = load i32, ptr %11, align 4, !tbaa !12
  %16 = icmp sgt i32 %15, 32
  br i1 %16, label %17, label %18

17:                                               ; preds = %4
  store i32 32, ptr %11, align 4, !tbaa !12
  br label %18

18:                                               ; preds = %17, %4
  %19 = load i32, ptr %11, align 4, !tbaa !12
  %20 = load ptr, ptr %9, align 8, !tbaa !16
  %21 = getelementptr inbounds nuw %struct.slowlogEntry, ptr %20, i32 0, i32 1
  store i32 %19, ptr %21, align 8, !tbaa !18
  %22 = load i32, ptr %11, align 4, !tbaa !12
  %23 = sext i32 %22 to i64
  %24 = mul i64 8, %23
  %25 = call noalias ptr @zmalloc(i64 noundef %24) #9
  %26 = load ptr, ptr %9, align 8, !tbaa !16
  %27 = getelementptr inbounds nuw %struct.slowlogEntry, ptr %26, i32 0, i32 0
  store ptr %25, ptr %27, align 8, !tbaa !22
  store i32 0, ptr %10, align 4, !tbaa !12
  br label %28

28:                                               ; preds = %159, %18
  %29 = load i32, ptr %10, align 4, !tbaa !12
  %30 = load i32, ptr %11, align 4, !tbaa !12
  %31 = icmp slt i32 %29, %30
  br i1 %31, label %32, label %162

32:                                               ; preds = %28
  %33 = load i32, ptr %11, align 4, !tbaa !12
  %34 = load i32, ptr %7, align 4, !tbaa !12
  %35 = icmp ne i32 %33, %34
  br i1 %35, label %36, label %55

36:                                               ; preds = %32
  %37 = load i32, ptr %10, align 4, !tbaa !12
  %38 = load i32, ptr %11, align 4, !tbaa !12
  %39 = sub nsw i32 %38, 1
  %40 = icmp eq i32 %37, %39
  br i1 %40, label %41, label %55

41:                                               ; preds = %36
  %42 = call ptr @sdsempty()
  %43 = load i32, ptr %7, align 4, !tbaa !12
  %44 = load i32, ptr %11, align 4, !tbaa !12
  %45 = sub nsw i32 %43, %44
  %46 = add nsw i32 %45, 1
  %47 = call ptr (ptr, ptr, ...) @sdscatprintf(ptr noundef %42, ptr noundef @.str, i32 noundef %46)
  %48 = call ptr @createObject(i32 noundef 0, ptr noundef %47)
  %49 = load ptr, ptr %9, align 8, !tbaa !16
  %50 = getelementptr inbounds nuw %struct.slowlogEntry, ptr %49, i32 0, i32 0
  %51 = load ptr, ptr %50, align 8, !tbaa !22
  %52 = load i32, ptr %10, align 4, !tbaa !12
  %53 = sext i32 %52 to i64
  %54 = getelementptr inbounds ptr, ptr %51, i64 %53
  store ptr %48, ptr %54, align 8, !tbaa !23
  br label %158

55:                                               ; preds = %36, %32
  %56 = load ptr, ptr %6, align 8, !tbaa !10
  %57 = load i32, ptr %10, align 4, !tbaa !12
  %58 = sext i32 %57 to i64
  %59 = getelementptr inbounds ptr, ptr %56, i64 %58
  %60 = load ptr, ptr %59, align 8, !tbaa !23
  %61 = load i32, ptr %60, align 8
  %62 = and i32 %61, 15
  %63 = icmp eq i32 %62, 0
  br i1 %63, label %64, label %122

64:                                               ; preds = %55
  %65 = load ptr, ptr %6, align 8, !tbaa !10
  %66 = load i32, ptr %10, align 4, !tbaa !12
  %67 = sext i32 %66 to i64
  %68 = getelementptr inbounds ptr, ptr %65, i64 %67
  %69 = load ptr, ptr %68, align 8, !tbaa !23
  %70 = load i32, ptr %69, align 8
  %71 = lshr i32 %70, 4
  %72 = and i32 %71, 15
  %73 = icmp eq i32 %72, 0
  br i1 %73, label %84, label %74

74:                                               ; preds = %64
  %75 = load ptr, ptr %6, align 8, !tbaa !10
  %76 = load i32, ptr %10, align 4, !tbaa !12
  %77 = sext i32 %76 to i64
  %78 = getelementptr inbounds ptr, ptr %75, i64 %77
  %79 = load ptr, ptr %78, align 8, !tbaa !23
  %80 = load i32, ptr %79, align 8
  %81 = lshr i32 %80, 4
  %82 = and i32 %81, 15
  %83 = icmp eq i32 %82, 8
  br i1 %83, label %84, label %122

84:                                               ; preds = %74, %64
  %85 = load ptr, ptr %6, align 8, !tbaa !10
  %86 = load i32, ptr %10, align 4, !tbaa !12
  %87 = sext i32 %86 to i64
  %88 = getelementptr inbounds ptr, ptr %85, i64 %87
  %89 = load ptr, ptr %88, align 8, !tbaa !23
  %90 = getelementptr inbounds nuw %struct.redisObject, ptr %89, i32 0, i32 2
  %91 = load ptr, ptr %90, align 8, !tbaa !25
  %92 = call i64 @sdslen(ptr noundef %91)
  %93 = icmp ugt i64 %92, 128
  br i1 %93, label %94, label %122

94:                                               ; preds = %84
  call void @llvm.lifetime.start.p0(i64 8, ptr %12) #8
  %95 = load ptr, ptr %6, align 8, !tbaa !10
  %96 = load i32, ptr %10, align 4, !tbaa !12
  %97 = sext i32 %96 to i64
  %98 = getelementptr inbounds ptr, ptr %95, i64 %97
  %99 = load ptr, ptr %98, align 8, !tbaa !23
  %100 = getelementptr inbounds nuw %struct.redisObject, ptr %99, i32 0, i32 2
  %101 = load ptr, ptr %100, align 8, !tbaa !25
  %102 = call ptr @sdsnewlen(ptr noundef %101, i64 noundef 128)
  store ptr %102, ptr %12, align 8, !tbaa !27
  %103 = load ptr, ptr %12, align 8, !tbaa !27
  %104 = load ptr, ptr %6, align 8, !tbaa !10
  %105 = load i32, ptr %10, align 4, !tbaa !12
  %106 = sext i32 %105 to i64
  %107 = getelementptr inbounds ptr, ptr %104, i64 %106
  %108 = load ptr, ptr %107, align 8, !tbaa !23
  %109 = getelementptr inbounds nuw %struct.redisObject, ptr %108, i32 0, i32 2
  %110 = load ptr, ptr %109, align 8, !tbaa !25
  %111 = call i64 @sdslen(ptr noundef %110)
  %112 = sub i64 %111, 128
  %113 = call ptr (ptr, ptr, ...) @sdscatprintf(ptr noundef %103, ptr noundef @.str.1, i64 noundef %112)
  store ptr %113, ptr %12, align 8, !tbaa !27
  %114 = load ptr, ptr %12, align 8, !tbaa !27
  %115 = call ptr @createObject(i32 noundef 0, ptr noundef %114)
  %116 = load ptr, ptr %9, align 8, !tbaa !16
  %117 = getelementptr inbounds nuw %struct.slowlogEntry, ptr %116, i32 0, i32 0
  %118 = load ptr, ptr %117, align 8, !tbaa !22
  %119 = load i32, ptr %10, align 4, !tbaa !12
  %120 = sext i32 %119 to i64
  %121 = getelementptr inbounds ptr, ptr %118, i64 %120
  store ptr %115, ptr %121, align 8, !tbaa !23
  call void @llvm.lifetime.end.p0(i64 8, ptr %12) #8
  br label %157

122:                                              ; preds = %84, %74, %55
  %123 = load ptr, ptr %6, align 8, !tbaa !10
  %124 = load i32, ptr %10, align 4, !tbaa !12
  %125 = sext i32 %124 to i64
  %126 = getelementptr inbounds ptr, ptr %123, i64 %125
  %127 = load ptr, ptr %126, align 8, !tbaa !23
  %128 = getelementptr inbounds nuw %struct.redisObject, ptr %127, i32 0, i32 1
  %129 = load i32, ptr %128, align 4, !tbaa !28
  %130 = icmp eq i32 %129, 2147483647
  br i1 %130, label %131, label %143

131:                                              ; preds = %122
  %132 = load ptr, ptr %6, align 8, !tbaa !10
  %133 = load i32, ptr %10, align 4, !tbaa !12
  %134 = sext i32 %133 to i64
  %135 = getelementptr inbounds ptr, ptr %132, i64 %134
  %136 = load ptr, ptr %135, align 8, !tbaa !23
  %137 = load ptr, ptr %9, align 8, !tbaa !16
  %138 = getelementptr inbounds nuw %struct.slowlogEntry, ptr %137, i32 0, i32 0
  %139 = load ptr, ptr %138, align 8, !tbaa !22
  %140 = load i32, ptr %10, align 4, !tbaa !12
  %141 = sext i32 %140 to i64
  %142 = getelementptr inbounds ptr, ptr %139, i64 %141
  store ptr %136, ptr %142, align 8, !tbaa !23
  br label %156

143:                                              ; preds = %122
  %144 = load ptr, ptr %6, align 8, !tbaa !10
  %145 = load i32, ptr %10, align 4, !tbaa !12
  %146 = sext i32 %145 to i64
  %147 = getelementptr inbounds ptr, ptr %144, i64 %146
  %148 = load ptr, ptr %147, align 8, !tbaa !23
  %149 = call ptr @dupStringObject(ptr noundef %148)
  %150 = load ptr, ptr %9, align 8, !tbaa !16
  %151 = getelementptr inbounds nuw %struct.slowlogEntry, ptr %150, i32 0, i32 0
  %152 = load ptr, ptr %151, align 8, !tbaa !22
  %153 = load i32, ptr %10, align 4, !tbaa !12
  %154 = sext i32 %153 to i64
  %155 = getelementptr inbounds ptr, ptr %152, i64 %154
  store ptr %149, ptr %155, align 8, !tbaa !23
  br label %156

156:                                              ; preds = %143, %131
  br label %157

157:                                              ; preds = %156, %94
  br label %158

158:                                              ; preds = %157, %41
  br label %159

159:                                              ; preds = %158
  %160 = load i32, ptr %10, align 4, !tbaa !12
  %161 = add nsw i32 %160, 1
  store i32 %161, ptr %10, align 4, !tbaa !12
  br label %28, !llvm.loop !29

162:                                              ; preds = %28
  %163 = call i64 @time(ptr noundef null) #8
  %164 = load ptr, ptr %9, align 8, !tbaa !16
  %165 = getelementptr inbounds nuw %struct.slowlogEntry, ptr %164, i32 0, i32 4
  store i64 %163, ptr %165, align 8, !tbaa !31
  %166 = load i64, ptr %8, align 8, !tbaa !14
  %167 = load ptr, ptr %9, align 8, !tbaa !16
  %168 = getelementptr inbounds nuw %struct.slowlogEntry, ptr %167, i32 0, i32 3
  store i64 %166, ptr %168, align 8, !tbaa !32
  %169 = load i64, ptr getelementptr inbounds nuw (%struct.redisServer, ptr @server, i32 0, i32 125), align 8, !tbaa !33
  %170 = add nsw i64 %169, 1
  store i64 %170, ptr getelementptr inbounds nuw (%struct.redisServer, ptr @server, i32 0, i32 125), align 8, !tbaa !33
  %171 = load ptr, ptr %9, align 8, !tbaa !16
  %172 = getelementptr inbounds nuw %struct.slowlogEntry, ptr %171, i32 0, i32 2
  store i64 %169, ptr %172, align 8, !tbaa !58
  %173 = load ptr, ptr %5, align 8, !tbaa !5
  %174 = call ptr @getClientPeerId(ptr noundef %173)
  %175 = call ptr @sdsnew(ptr noundef %174)
  %176 = load ptr, ptr %9, align 8, !tbaa !16
  %177 = getelementptr inbounds nuw %struct.slowlogEntry, ptr %176, i32 0, i32 6
  store ptr %175, ptr %177, align 8, !tbaa !59
  %178 = load ptr, ptr %5, align 8, !tbaa !5
  %179 = getelementptr inbounds nuw %struct.client, ptr %178, i32 0, i32 9
  %180 = load ptr, ptr %179, align 8, !tbaa !60
  %181 = icmp ne ptr %180, null
  br i1 %181, label %182, label %189

182:                                              ; preds = %162
  %183 = load ptr, ptr %5, align 8, !tbaa !5
  %184 = getelementptr inbounds nuw %struct.client, ptr %183, i32 0, i32 9
  %185 = load ptr, ptr %184, align 8, !tbaa !60
  %186 = getelementptr inbounds nuw %struct.redisObject, ptr %185, i32 0, i32 2
  %187 = load ptr, ptr %186, align 8, !tbaa !25
  %188 = call ptr @sdsnew(ptr noundef %187)
  br label %191

189:                                              ; preds = %162
  %190 = call ptr @sdsempty()
  br label %191

191:                                              ; preds = %189, %182
  %192 = phi ptr [ %188, %182 ], [ %190, %189 ]
  %193 = load ptr, ptr %9, align 8, !tbaa !16
  %194 = getelementptr inbounds nuw %struct.slowlogEntry, ptr %193, i32 0, i32 5
  store ptr %192, ptr %194, align 8, !tbaa !69
  %195 = load ptr, ptr %9, align 8, !tbaa !16
  call void @llvm.lifetime.end.p0(i64 4, ptr %11) #8
  call void @llvm.lifetime.end.p0(i64 4, ptr %10) #8
  call void @llvm.lifetime.end.p0(i64 8, ptr %9) #8
  ret ptr %195
}