; Function Attrs: nounwind uwtable
define dso_local noalias noundef ptr @slowlogCreateEntry(ptr noundef %0, ptr noundef readonly captures(none) %1, i32 noundef %2, i64 noundef %3) local_unnamed_addr #0 {
  %5 = tail call noalias dereferenceable_or_null(56) ptr @zmalloc(i64 noundef 56) #8
  %6 = icmp sgt i32 %2, 32
  %spec.store.select = tail call i32 @llvm.smin.i32(i32 %2, i32 32)
  %7 = getelementptr inbounds nuw i8, ptr %5, i64 8
  store i32 %spec.store.select, ptr %7, align 8, !tbaa !5
  %8 = sext i32 %spec.store.select to i64
  %9 = shl nsw i64 %8, 3
  %10 = tail call noalias ptr @zmalloc(i64 noundef %9) #8
  store ptr %10, ptr %5, align 8, !tbaa !15
  %11 = icmp sgt i32 %2, 0
  br i1 %11, label %.lr.ph, label %._crit_edge

.lr.ph:                                           ; preds = %4
  %12 = add nsw i32 %spec.store.select, -1
  %13 = add nuw i32 %2, 1
  %14 = sub i32 %13, %spec.store.select
  %15 = zext i32 %12 to i64
  %wide.trip.count = zext nneg i32 %spec.store.select to i64
  %16 = getelementptr inbounds nuw ptr, ptr %10, i64 %15
  br label %17

17:                                               ; preds = %.lr.ph, %93
  %indvars.iv = phi i64 [ 0, %.lr.ph ], [ %indvars.iv.next, %93 ]
  %18 = icmp eq i64 %indvars.iv, %15
  %or.cond = select i1 %6, i1 %18, i1 false
  br i1 %or.cond, label %19, label %23

19:                                               ; preds = %17
  %20 = tail call ptr @sdsempty() #9
  %21 = tail call ptr (ptr, ptr, ...) @sdscatprintf(ptr noundef %20, ptr noundef nonnull @.str, i32 noundef %14) #9
  %22 = tail call ptr @createObject(i32 noundef 0, ptr noundef %21) #9
  store ptr %22, ptr %16, align 8, !tbaa !16
  br label %93

23:                                               ; preds = %17
  %24 = getelementptr inbounds nuw ptr, ptr %1, i64 %indvars.iv
  %25 = load ptr, ptr %24, align 8, !tbaa !16
  %26 = load i32, ptr %25, align 8
  %27 = and i32 %26, 15
  %28 = icmp eq i32 %27, 0
  br i1 %28, label %29, label %sdslen.exit.thread

29:                                               ; preds = %23
  %30 = lshr exact i32 %26, 4
  %31 = and i32 %30, 15
  switch i32 %31, label %sdslen.exit.thread [
    i32 0, label %32
    i32 8, label %32
  ]

32:                                               ; preds = %29, %29
  %33 = getelementptr inbounds nuw i8, ptr %25, i64 8
  %34 = load ptr, ptr %33, align 8, !tbaa !18
  %35 = getelementptr inbounds i8, ptr %34, i64 -1
  %36 = load i8, ptr %35, align 1, !tbaa !20
  %37 = and i8 %36, 7
  switch i8 %37, label %sdslen.exit.thread [
    i8 4, label %50
    i8 1, label %38
    i8 2, label %42
    i8 3, label %46
  ]

38:                                               ; preds = %32
  %39 = getelementptr inbounds i8, ptr %34, i64 -3
  %40 = load i8, ptr %39, align 1, !tbaa !20
  %41 = zext i8 %40 to i64
  br label %sdslen.exit

42:                                               ; preds = %32
  %43 = getelementptr inbounds i8, ptr %34, i64 -5
  %44 = load i16, ptr %43, align 1, !tbaa !21
  %45 = zext i16 %44 to i64
  br label %sdslen.exit

46:                                               ; preds = %32
  %47 = getelementptr inbounds i8, ptr %34, i64 -9
  %48 = load i32, ptr %47, align 1, !tbaa !23
  %49 = zext i32 %48 to i64
  br label %sdslen.exit

50:                                               ; preds = %32
  %51 = getelementptr inbounds i8, ptr %34, i64 -17
  %52 = load i64, ptr %51, align 1, !tbaa !24
  br label %sdslen.exit

sdslen.exit:                                      ; preds = %38, %42, %46, %50
  %.0.i = phi i64 [ %52, %50 ], [ %49, %46 ], [ %45, %42 ], [ %41, %38 ]
  %53 = icmp ugt i64 %.0.i, 128
  br i1 %53, label %54, label %sdslen.exit.thread

54:                                               ; preds = %sdslen.exit
  %55 = tail call ptr @sdsnewlen(ptr noundef nonnull %34, i64 noundef 128) #9
  %56 = load ptr, ptr %24, align 8, !tbaa !16
  %57 = getelementptr inbounds nuw i8, ptr %56, i64 8
  %58 = load ptr, ptr %57, align 8, !tbaa !18
  %59 = getelementptr inbounds i8, ptr %58, i64 -1
  %60 = load i8, ptr %59, align 1, !tbaa !20
  %61 = zext i8 %60 to i32
  %62 = and i32 %61, 7
  switch i32 %62, label %sdslen.exit57 [
    i32 0, label %63
    i32 1, label %66
    i32 2, label %70
    i32 3, label %74
    i32 4, label %78
  ]

63:                                               ; preds = %54
  %64 = lshr i32 %61, 3
  %65 = zext nneg i32 %64 to i64
  br label %sdslen.exit57

66:                                               ; preds = %54
  %67 = getelementptr inbounds i8, ptr %58, i64 -3
  %68 = load i8, ptr %67, align 1, !tbaa !20
  %69 = zext i8 %68 to i64
  br label %sdslen.exit57

70:                                               ; preds = %54
  %71 = getelementptr inbounds i8, ptr %58, i64 -5
  %72 = load i16, ptr %71, align 1, !tbaa !21
  %73 = zext i16 %72 to i64
  br label %sdslen.exit57

74:                                               ; preds = %54
  %75 = getelementptr inbounds i8, ptr %58, i64 -9
  %76 = load i32, ptr %75, align 1, !tbaa !23
  %77 = zext i32 %76 to i64
  br label %sdslen.exit57

78:                                               ; preds = %54
  %79 = getelementptr inbounds i8, ptr %58, i64 -17
  %80 = load i64, ptr %79, align 1, !tbaa !24
  br label %sdslen.exit57

sdslen.exit57:                                    ; preds = %54, %63, %66, %70, %74, %78
  %.0.i56 = phi i64 [ %80, %78 ], [ %77, %74 ], [ %73, %70 ], [ %69, %66 ], [ %65, %63 ], [ 0, %54 ]
  %81 = add i64 %.0.i56, -128
  %82 = tail call ptr (ptr, ptr, ...) @sdscatprintf(ptr noundef %55, ptr noundef nonnull @.str.1, i64 noundef %81) #9
  %83 = tail call ptr @createObject(i32 noundef 0, ptr noundef %82) #9
  %84 = getelementptr inbounds nuw ptr, ptr %10, i64 %indvars.iv
  store ptr %83, ptr %84, align 8, !tbaa !16
  br label %93

sdslen.exit.thread:                               ; preds = %32, %29, %sdslen.exit, %23
  %85 = getelementptr inbounds nuw i8, ptr %25, i64 4
  %86 = load i32, ptr %85, align 4, !tbaa !25
  %87 = icmp eq i32 %86, 2147483647
  br i1 %87, label %88, label %90

88:                                               ; preds = %sdslen.exit.thread
  %89 = getelementptr inbounds nuw ptr, ptr %10, i64 %indvars.iv
  store ptr %25, ptr %89, align 8, !tbaa !16
  br label %93

90:                                               ; preds = %sdslen.exit.thread
  %91 = tail call ptr @dupStringObject(ptr noundef nonnull %25) #9
  %92 = getelementptr inbounds nuw ptr, ptr %10, i64 %indvars.iv
  store ptr %91, ptr %92, align 8, !tbaa !16
  br label %93

93:                                               ; preds = %19, %88, %90, %sdslen.exit57
  %indvars.iv.next = add nuw nsw i64 %indvars.iv, 1
  %exitcond.not = icmp eq i64 %indvars.iv.next, %wide.trip.count
  br i1 %exitcond.not, label %._crit_edge, label %17, !llvm.loop !26

._crit_edge:                                      ; preds = %93, %4
  %94 = tail call i64 @time(ptr noundef null) #9
  %95 = getelementptr inbounds nuw i8, ptr %5, i64 32
  store i64 %94, ptr %95, align 8, !tbaa !28
  %96 = getelementptr inbounds nuw i8, ptr %5, i64 24
  store i64 %3, ptr %96, align 8, !tbaa !29
  %97 = load i64, ptr getelementptr inbounds nuw (i8, ptr @server, i64 2736), align 8, !tbaa !30
  %98 = add nsw i64 %97, 1
  store i64 %98, ptr getelementptr inbounds nuw (i8, ptr @server, i64 2736), align 8, !tbaa !30
  %99 = getelementptr inbounds nuw i8, ptr %5, i64 16
  store i64 %97, ptr %99, align 8, !tbaa !56
  %100 = tail call ptr @getClientPeerId(ptr noundef %0) #9
  %101 = tail call ptr @sdsnew(ptr noundef %100) #9
  %102 = getelementptr inbounds nuw i8, ptr %5, i64 48
  store ptr %101, ptr %102, align 8, !tbaa !57
  %103 = getelementptr inbounds nuw i8, ptr %0, i64 40
  %104 = load ptr, ptr %103, align 8, !tbaa !58
  %.not = icmp eq ptr %104, null
  br i1 %.not, label %109, label %105

105:                                              ; preds = %._crit_edge
  %106 = getelementptr inbounds nuw i8, ptr %104, i64 8
  %107 = load ptr, ptr %106, align 8, !tbaa !18
  %108 = tail call ptr @sdsnew(ptr noundef %107) #9
  br label %111

109:                                              ; preds = %._crit_edge
  %110 = tail call ptr @sdsempty() #9
  br label %111

111:                                              ; preds = %109, %105
  %112 = phi ptr [ %108, %105 ], [ %110, %109 ]
  %113 = getelementptr inbounds nuw i8, ptr %5, i64 40
  store ptr %112, ptr %113, align 8, !tbaa !67
  ret ptr %5
}